; Function Attrs: mustprogress uwtable
define internal noundef zeroext i1 @"_ZNSt17_Function_handlerIFbvEZL15SpeedECDSACurveRKNSt7__cxx1112basic_stringIcSt11char_traitsIcESaIcEEEiS8_E3$_0E9_M_invokeERKSt9_Any_data"(ptr noundef nonnull readonly align 8 captures(none) dereferenceable(16) %0) #0 align 2 {
  %.val = load ptr, ptr %0, align 8, !tbaa !31
  %2 = getelementptr inbounds nuw i8, ptr %.val, i64 16
  %3 = load ptr, ptr %2, align 8, !tbaa !137
  %4 = getelementptr inbounds nuw i8, ptr %.val, i64 8
  %5 = load ptr, ptr %4, align 8, !tbaa !139
  %6 = getelementptr inbounds nuw i8, ptr %.val, i64 24
  %7 = load ptr, ptr %6, align 8, !tbaa !140
  %8 = load ptr, ptr %.val, align 8, !tbaa !141
  %9 = load ptr, ptr %8, align 8, !tbaa !121
  %10 = tail call i32 @ECDSA_sign(i32 noundef 0, ptr noundef %3, i64 noundef 20, ptr noundef %5, ptr noundef %7, ptr noundef %9)
  %11 = icmp eq i32 %10, 1
  ret i1 %11
}